target datalayout = "e-m:e-p270:32:32-p271:32:32-p272:64:64-i64:64-i128:128-f80:128-n8:16:32:64-S128"
target triple = "x86_64-pc-linux-gnu"

%struct.MRef = type { i64 }
%struct.GCRef = type { i64 }
%struct.GCproto = type { %struct.GCRef, i8, i8, i8, i8, i32, i32, %struct.GCRef, %struct.MRef, %struct.MRef, i32, i32, i32, i8, i8, i16, %struct.GCRef, i32, i32, %struct.MRef, %struct.MRef, %struct.MRef }
%struct.GCstr = type { %struct.GCRef, i8, i8, i8, i8, i32, i32, i32 }
%struct.SBuf = type { ptr, ptr, ptr, %struct.MRef }

@.str.7 = private unnamed_addr constant [10 x i8] c"[builtin:\00", align 1
@.str.39 = private unnamed_addr constant [9 x i8] c"[string]\00", align 1

; Function Attrs: alwaysinline nounwind uwtable
define internal ptr @lj_buf_more(ptr noundef %0, i32 noundef %1) #4 {
  %3 = alloca ptr, align 8
  %4 = alloca ptr, align 8
  %5 = alloca i32, align 4
  store ptr %0, ptr %4, align 8, !tbaa !103
  store i32 %1, ptr %5, align 4, !tbaa !9
  %6 = load i32, ptr %5, align 4, !tbaa !9
  %7 = load ptr, ptr %4, align 8, !tbaa !103
  %8 = getelementptr inbounds nuw %struct.SBuf, ptr %7, i32 0, i32 1
  %9 = load ptr, ptr %8, align 8, !tbaa !117
  %10 = load ptr, ptr %4, align 8, !tbaa !103
  %11 = getelementptr inbounds nuw %struct.SBuf, ptr %10, i32 0, i32 0
  %12 = load ptr, ptr %11, align 8, !tbaa !105
  %13 = ptrtoint ptr %9 to i64
  %14 = ptrtoint ptr %12 to i64
  %15 = sub i64 %13, %14
  %16 = trunc i64 %15 to i32
  %17 = icmp ugt i32 %6, %16
  %18 = xor i1 %17, true
  %19 = xor i1 %18, true
  %20 = zext i1 %19 to i32
  %21 = sext i32 %20 to i64
  %22 = call i64 @llvm.expect.i64(i64 %21, i64 0)
  %23 = icmp ne i64 %22, 0
  br i1 %23, label %24, label %28

24:                                               ; preds = %2
  %25 = load ptr, ptr %4, align 8, !tbaa !103
  %26 = load i32, ptr %5, align 4, !tbaa !9
  %27 = call ptr @lj_buf_more2(ptr noundef %25, i32 noundef %26)
  store ptr %27, ptr %3, align 8
  br label %32

28:                                               ; preds = %2
  %29 = load ptr, ptr %4, align 8, !tbaa !103
  %30 = getelementptr inbounds nuw %struct.SBuf, ptr %29, i32 0, i32 0
  %31 = load ptr, ptr %30, align 8, !tbaa !105
  store ptr %31, ptr %3, align 8
  br label %32

32:                                               ; preds = %28, %24
  %33 = load ptr, ptr %3, align 8
  ret ptr %33
}

; Function Attrs: alwaysinline nounwind uwtable
define internal void @lj_buf_putb(ptr noundef %0, i32 noundef %1) #4 {
  %3 = alloca ptr, align 8
  %4 = alloca i32, align 4
  %5 = alloca ptr, align 8
  store ptr %0, ptr %3, align 8, !tbaa !103
  store i32 %1, ptr %4, align 4, !tbaa !9
  call void @llvm.lifetime.start.p0(i64 8, ptr %5) #8
  %6 = load ptr, ptr %3, align 8, !tbaa !103
  %7 = call ptr @lj_buf_more(ptr noundef %6, i32 noundef 1)
  store ptr %7, ptr %5, align 8, !tbaa !35
  %8 = load i32, ptr %4, align 4, !tbaa !9
  %9 = trunc i32 %8 to i8
  %10 = load ptr, ptr %5, align 8, !tbaa !35
  %11 = getelementptr inbounds nuw i8, ptr %10, i32 1
  store ptr %11, ptr %5, align 8, !tbaa !35
  store i8 %9, ptr %10, align 1, !tbaa !21
  %12 = load ptr, ptr %5, align 8, !tbaa !35
  %13 = load ptr, ptr %3, align 8, !tbaa !103
  %14 = getelementptr inbounds nuw %struct.SBuf, ptr %13, i32 0, i32 0
  store ptr %12, ptr %14, align 8, !tbaa !105
  call void @llvm.lifetime.end.p0(i64 8, ptr %5) #8
  ret void
}

; Function Attrs: nounwind uwtable
define internal i32 @debug_putchunkname(ptr noundef %0, ptr noundef %1, i32 noundef %2) #0 {
  %4 = alloca i32, align 4
  %5 = alloca ptr, align 8
  %6 = alloca ptr, align 8
  %7 = alloca i32, align 4
  %8 = alloca ptr, align 8
  %9 = alloca ptr, align 8
  %10 = alloca i32, align 4
  %11 = alloca i32, align 4
  %12 = alloca i32, align 4
  store ptr %0, ptr %5, align 8, !tbaa !103
  store ptr %1, ptr %6, align 8, !tbaa !24
  store i32 %2, ptr %7, align 4, !tbaa !9
  call void @llvm.lifetime.start.p0(i64 8, ptr %8) #8
  %13 = load ptr, ptr %6, align 8, !tbaa !24
  %14 = getelementptr inbounds nuw %struct.GCproto, ptr %13, i32 0, i32 16
  %15 = getelementptr inbounds nuw %struct.GCRef, ptr %14, i32 0, i32 0
  %16 = load i64, ptr %15, align 8, !tbaa !71
  %17 = inttoptr i64 %16 to ptr
  store ptr %17, ptr %8, align 8, !tbaa !65
  call void @llvm.lifetime.start.p0(i64 8, ptr %9) #8
  %18 = load ptr, ptr %8, align 8, !tbaa !65
  %19 = getelementptr inbounds %struct.GCstr, ptr %18, i64 1
  store ptr %19, ptr %9, align 8, !tbaa !35
  %20 = load ptr, ptr %6, align 8, !tbaa !24
  %21 = getelementptr inbounds nuw %struct.GCproto, ptr %20, i32 0, i32 17
  %22 = load i32, ptr %21, align 8, !tbaa !31
  %23 = icmp eq i32 %22, -1
  br i1 %23, label %24, label %31

24:                                               ; preds = %3
  %25 = load ptr, ptr %5, align 8, !tbaa !103
  %26 = call ptr @lj_buf_putmem(ptr noundef %25, ptr noundef @.str.7, i32 noundef 9)
  %27 = load ptr, ptr %5, align 8, !tbaa !103
  %28 = load ptr, ptr %8, align 8, !tbaa !65
  %29 = call ptr @lj_buf_putstr(ptr noundef %27, ptr noundef %28)
  %30 = load ptr, ptr %5, align 8, !tbaa !103
  call void @lj_buf_putb(ptr noundef %30, i32 noundef 93)
  store i32 0, ptr %4, align 4
  store i32 1, ptr %10, align 4
  br label %96

31:                                               ; preds = %3
  %32 = load ptr, ptr %9, align 8, !tbaa !35
  %33 = load i8, ptr %32, align 1, !tbaa !21
  %34 = sext i8 %33 to i32
  %35 = icmp eq i32 %34, 61
  br i1 %35, label %41, label %36

36:                                               ; preds = %31
  %37 = load ptr, ptr %9, align 8, !tbaa !35
  %38 = load i8, ptr %37, align 1, !tbaa !21
  %39 = sext i8 %38 to i32
  %40 = icmp eq i32 %39, 64
  br i1 %40, label %41, label %92

41:                                               ; preds = %36, %31
  call void @llvm.lifetime.start.p0(i64 4, ptr %11) #8
  %42 = load ptr, ptr %8, align 8, !tbaa !65
  %43 = getelementptr inbounds nuw %struct.GCstr, ptr %42, i32 0, i32 7
  %44 = load i32, ptr %43, align 4, !tbaa !67
  %45 = sub i32 %44, 1
  store i32 %45, ptr %11, align 4, !tbaa !9
  %46 = load ptr, ptr %9, align 8, !tbaa !35
  %47 = getelementptr inbounds nuw i8, ptr %46, i32 1
  store ptr %47, ptr %9, align 8, !tbaa !35
  %48 = load i32, ptr %7, align 4, !tbaa !9
  %49 = icmp ne i32 %48, 0
  br i1 %49, label %50, label %87

50:                                               ; preds = %41
  call void @llvm.lifetime.start.p0(i64 4, ptr %12) #8
  %51 = load i32, ptr %11, align 4, !tbaa !9
  %52 = sub i32 %51, 1
  store i32 %52, ptr %12, align 4, !tbaa !9
  br label %53

53:                                               ; preds = %83, %50
  %54 = load i32, ptr %12, align 4, !tbaa !9
  %55 = icmp sge i32 %54, 0
  br i1 %55, label %56, label %86

56:                                               ; preds = %53
  %57 = load ptr, ptr %9, align 8, !tbaa !35
  %58 = load i32, ptr %12, align 4, !tbaa !9
  %59 = sext i32 %58 to i64
  %60 = getelementptr inbounds i8, ptr %57, i64 %59
  %61 = load i8, ptr %60, align 1, !tbaa !21
  %62 = sext i8 %61 to i32
  %63 = icmp eq i32 %62, 47
  br i1 %63, label %72, label %64

64:                                               ; preds = %56
  %65 = load ptr, ptr %9, align 8, !tbaa !35
  %66 = load i32, ptr %12, align 4, !tbaa !9
  %67 = sext i32 %66 to i64
  %68 = getelementptr inbounds i8, ptr %65, i64 %67
  %69 = load i8, ptr %68, align 1, !tbaa !21
  %70 = sext i8 %69 to i32
  %71 = icmp eq i32 %70, 92
  br i1 %71, label %72, label %82

72:                                               ; preds = %64, %56
  %73 = load i32, ptr %12, align 4, !tbaa !9
  %74 = add nsw i32 %73, 1
  %75 = load i32, ptr %11, align 4, !tbaa !9
  %76 = sub i32 %75, %74
  store i32 %76, ptr %11, align 4, !tbaa !9
  %77 = load ptr, ptr %9, align 8, !tbaa !35
  %78 = load i32, ptr %12, align 4, !tbaa !9
  %79 = sext i32 %78 to i64
  %80 = getelementptr inbounds i8, ptr %77, i64 %79
  %81 = getelementptr inbounds i8, ptr %80, i64 1
  store ptr %81, ptr %9, align 8, !tbaa !35
  br label %86

82:                                               ; preds = %64
  br label %83

83:                                               ; preds = %82
  %84 = load i32, ptr %12, align 4, !tbaa !9
  %85 = add nsw i32 %84, -1
  store i32 %85, ptr %12, align 4, !tbaa !9
  br label %53, !llvm.loop !110

86:                                               ; preds = %72, %53
  call void @llvm.lifetime.end.p0(i64 4, ptr %12) #8
  br label %87

87:                                               ; preds = %86, %41
  %88 = load ptr, ptr %5, align 8, !tbaa !103
  %89 = load ptr, ptr %9, align 8, !tbaa !35
  %90 = load i32, ptr %11, align 4, !tbaa !9
  %91 = call ptr @lj_buf_putmem(ptr noundef %88, ptr noundef %89, i32 noundef %90)
  call void @llvm.lifetime.end.p0(i64 4, ptr %11) #8
  br label %95

92:                                               ; preds = %36
  %93 = load ptr, ptr %5, align 8, !tbaa !103
  %94 = call ptr @lj_buf_putmem(ptr noundef %93, ptr noundef @.str.39, i32 noundef 8)
  br label %95

95:                                               ; preds = %92, %87
  store i32 1, ptr %4, align 4
  store i32 1, ptr %10, align 4
  br label %96

96:                                               ; preds = %95, %24
  call void @llvm.lifetime.end.p0(i64 8, ptr %9) #8
  call void @llvm.lifetime.end.p0(i64 8, ptr %8) #8
  %97 = load i32, ptr %4, align 4
  ret i32 %97
}