; Function Attrs: nounwind uwtable
define internal fastcc void @debug_putchunkname(ptr noundef %0, i64 %.64.val, i32 %.72.val, i32 noundef range(i32 0, 2) %1) unnamed_addr #4 {
  %3 = inttoptr i64 %.64.val to ptr
  %4 = icmp eq i32 %.72.val, -1
  br i1 %4, label %5, label %19

5:                                                ; preds = %2
  %6 = tail call ptr @lj_buf_putmem(ptr noundef %0, ptr noundef nonnull @.str.7, i32 noundef 9) #11
  %7 = tail call ptr @lj_buf_putstr(ptr noundef %0, ptr noundef %3) #11
  %8 = getelementptr inbounds nuw i8, ptr %0, i64 8
  %9 = load ptr, ptr %8, align 8, !tbaa !79
  %10 = load ptr, ptr %0, align 8, !tbaa !81
  %11 = ptrtoint ptr %9 to i64
  %12 = ptrtoint ptr %10 to i64
  %13 = sub i64 %11, %12
  %14 = and i64 %13, 4294967295
  %15 = icmp eq i64 %14, 0
  br i1 %15, label %16, label %lj_buf_more.exit, !prof !82

16:                                               ; preds = %5
  %17 = tail call ptr @lj_buf_more2(ptr noundef nonnull %0, i32 noundef 1) #11
  br label %lj_buf_more.exit

lj_buf_more.exit:                                 ; preds = %5, %16
  %.0.i = phi ptr [ %17, %16 ], [ %10, %5 ]
  %18 = getelementptr inbounds nuw i8, ptr %.0.i, i64 1
  store i8 93, ptr %.0.i, align 1, !tbaa !15
  store ptr %18, ptr %0, align 8, !tbaa !81
  br label %42

19:                                               ; preds = %2
  %20 = getelementptr inbounds nuw i8, ptr %3, i64 24
  %21 = load i8, ptr %20, align 1, !tbaa !15
  switch i8 %21, label %40 [
    i8 61, label %22
    i8 64, label %22
  ]

22:                                               ; preds = %19, %19
  %23 = getelementptr inbounds nuw i8, ptr %3, i64 20
  %24 = load i32, ptr %23, align 4, !tbaa !51
  %25 = add i32 %24, -1
  %26 = getelementptr inbounds nuw i8, ptr %3, i64 25
  %.not = icmp ne i32 %1, 0
  %27 = add i32 %24, -2
  %28 = icmp sgt i32 %27, -1
  %or.cond = select i1 %.not, i1 %28, i1 false
  br i1 %or.cond, label %.lr.ph.preheader, label %.loopexit

.lr.ph.preheader:                                 ; preds = %22
  %29 = zext nneg i32 %27 to i64
  br label %.lr.ph

.lr.ph:                                           ; preds = %.lr.ph.preheader, %37
  %indvars.iv = phi i64 [ %29, %.lr.ph.preheader ], [ %indvars.iv.next, %37 ]
  %30 = getelementptr inbounds nuw i8, ptr %26, i64 %indvars.iv
  %31 = load i8, ptr %30, align 1, !tbaa !15
  switch i8 %31, label %37 [
    i8 47, label %32
    i8 92, label %32
  ]

32:                                               ; preds = %.lr.ph, %.lr.ph
  %33 = getelementptr inbounds nuw i8, ptr %26, i64 %indvars.iv
  %34 = trunc nuw nsw i64 %indvars.iv to i32
  %.neg = xor i32 %34, -1
  %35 = add i32 %25, %.neg
  %36 = getelementptr inbounds nuw i8, ptr %33, i64 1
  br label %.loopexit

37:                                               ; preds = %.lr.ph
  %indvars.iv.next = add nsw i64 %indvars.iv, -1
  %38 = icmp sgt i64 %indvars.iv, 0
  br i1 %38, label %.lr.ph, label %.loopexit, !llvm.loop !83

.loopexit:                                        ; preds = %37, %32, %22
  %.028 = phi ptr [ %26, %22 ], [ %36, %32 ], [ %26, %37 ]
  %.027 = phi i32 [ %25, %22 ], [ %35, %32 ], [ %25, %37 ]
  %39 = tail call ptr @lj_buf_putmem(ptr noundef %0, ptr noundef nonnull %.028, i32 noundef %.027) #11
  br label %42

40:                                               ; preds = %19
  %41 = tail call ptr @lj_buf_putmem(ptr noundef %0, ptr noundef nonnull @.str.39, i32 noundef 8) #11
  br label %42

42:                                               ; preds = %.loopexit, %40, %lj_buf_more.exit
  ret void
}